target datalayout = "e-m:e-p270:32:32-p271:32:32-p272:64:64-i64:64-i128:128-f80:128-n8:16:32:64-S128"
target triple = "x86_64-pc-linux-gnu"

%"struct.duckdb_libpgquery::PGList" = type { i32, i32, ptr, ptr }
%"struct.duckdb_libpgquery::PGListCell" = type { %union.anon, ptr }
%union.anon = type { ptr }

; Function Attrs: mustprogress uwtable
define internal void @_ZN17duckdb_libpgqueryL13new_tail_cellEPNS_6PGListE(ptr noundef %0) #0 {
  %2 = alloca ptr, align 8
  %3 = alloca ptr, align 8
  store ptr %0, ptr %2, align 8, !tbaa !3
  call void @llvm.lifetime.start.p0(i64 8, ptr %3) #6
  %4 = call noundef ptr @_ZN17duckdb_libpgquery6pallocEm(i64 noundef 16)
  store ptr %4, ptr %3, align 8, !tbaa !16
  %5 = load ptr, ptr %3, align 8, !tbaa !16
  %6 = getelementptr inbounds nuw %"struct.duckdb_libpgquery::PGListCell", ptr %5, i32 0, i32 1
  store ptr null, ptr %6, align 8, !tbaa !17
  %7 = load ptr, ptr %3, align 8, !tbaa !16
  %8 = load ptr, ptr %2, align 8, !tbaa !3
  %9 = getelementptr inbounds nuw %"struct.duckdb_libpgquery::PGList", ptr %8, i32 0, i32 3
  %10 = load ptr, ptr %9, align 8, !tbaa !9
  %11 = getelementptr inbounds nuw %"struct.duckdb_libpgquery::PGListCell", ptr %10, i32 0, i32 1
  store ptr %7, ptr %11, align 8, !tbaa !17
  %12 = load ptr, ptr %3, align 8, !tbaa !16
  %13 = load ptr, ptr %2, align 8, !tbaa !3
  %14 = getelementptr inbounds nuw %"struct.duckdb_libpgquery::PGList", ptr %13, i32 0, i32 3
  store ptr %12, ptr %14, align 8, !tbaa !9
  %15 = load ptr, ptr %2, align 8, !tbaa !3
  %16 = getelementptr inbounds nuw %"struct.duckdb_libpgquery::PGList", ptr %15, i32 0, i32 1
  %17 = load i32, ptr %16, align 4, !tbaa !20
  %18 = add nsw i32 %17, 1
  store i32 %18, ptr %16, align 4, !tbaa !20
  call void @llvm.lifetime.end.p0(i64 8, ptr %3) #6
  ret void
}

; Function Attrs: mustprogress uwtable
define internal noundef ptr @_ZN17duckdb_libpgqueryL8new_listENS_9PGNodeTagE(i32 noundef %0) #0 {
  %2 = alloca i32, align 4
  %3 = alloca ptr, align 8
  %4 = alloca ptr, align 8
  store i32 %0, ptr %2, align 4, !tbaa !15
  call void @llvm.lifetime.start.p0(i64 8, ptr %3) #6
  call void @llvm.lifetime.start.p0(i64 8, ptr %4) #6
  %5 = call noundef ptr @_ZN17duckdb_libpgquery6pallocEm(i64 noundef 16)
  store ptr %5, ptr %4, align 8, !tbaa !16
  %6 = load ptr, ptr %4, align 8, !tbaa !16
  %7 = getelementptr inbounds nuw %"struct.duckdb_libpgquery::PGListCell", ptr %6, i32 0, i32 1
  store ptr null, ptr %7, align 8, !tbaa !17
  %8 = call noundef ptr @_ZN17duckdb_libpgquery6pallocEm(i64 noundef 24)
  store ptr %8, ptr %3, align 8, !tbaa !3
  %9 = load i32, ptr %2, align 4, !tbaa !15
  %10 = load ptr, ptr %3, align 8, !tbaa !3
  %11 = getelementptr inbounds nuw %"struct.duckdb_libpgquery::PGList", ptr %10, i32 0, i32 0
  store i32 %9, ptr %11, align 8, !tbaa !19
  %12 = load ptr, ptr %3, align 8, !tbaa !3
  %13 = getelementptr inbounds nuw %"struct.duckdb_libpgquery::PGList", ptr %12, i32 0, i32 1
  store i32 1, ptr %13, align 4, !tbaa !20
  %14 = load ptr, ptr %4, align 8, !tbaa !16
  %15 = load ptr, ptr %3, align 8, !tbaa !3
  %16 = getelementptr inbounds nuw %"struct.duckdb_libpgquery::PGList", ptr %15, i32 0, i32 2
  store ptr %14, ptr %16, align 8, !tbaa !21
  %17 = load ptr, ptr %4, align 8, !tbaa !16
  %18 = load ptr, ptr %3, align 8, !tbaa !3
  %19 = getelementptr inbounds nuw %"struct.duckdb_libpgquery::PGList", ptr %18, i32 0, i32 3
  store ptr %17, ptr %19, align 8, !tbaa !9
  %20 = load ptr, ptr %3, align 8, !tbaa !3
  call void @llvm.lifetime.end.p0(i64 8, ptr %4) #6
  call void @llvm.lifetime.end.p0(i64 8, ptr %3) #6
  ret ptr %20
}

; Function Attrs: mustprogress uwtable
define hidden noundef ptr @_ZN17duckdb_libpgquery7lappendEPNS_6PGListEPv(ptr noundef %0, ptr noundef %1) #0 {
  %3 = alloca ptr, align 8
  %4 = alloca ptr, align 8
  store ptr %0, ptr %3, align 8, !tbaa !3
  store ptr %1, ptr %4, align 8, !tbaa !8
  %5 = load ptr, ptr %3, align 8, !tbaa !3
  %6 = icmp eq ptr %5, null
  br i1 %6, label %7, label %9

7:                                                ; preds = %2
  %8 = call noundef ptr @_ZN17duckdb_libpgqueryL8new_listENS_9PGNodeTagE(i32 noundef 221)
  store ptr %8, ptr %3, align 8, !tbaa !3
  br label %11

9:                                                ; preds = %2
  %10 = load ptr, ptr %3, align 8, !tbaa !3
  call void @_ZN17duckdb_libpgqueryL13new_tail_cellEPNS_6PGListE(ptr noundef %10)
  br label %11

11:                                               ; preds = %9, %7
  %12 = load ptr, ptr %4, align 8, !tbaa !8
  %13 = load ptr, ptr %3, align 8, !tbaa !3
  %14 = getelementptr inbounds nuw %"struct.duckdb_libpgquery::PGList", ptr %13, i32 0, i32 3
  %15 = load ptr, ptr %14, align 8, !tbaa !9
  %16 = getelementptr inbounds nuw %"struct.duckdb_libpgquery::PGListCell", ptr %15, i32 0, i32 0
  store ptr %12, ptr %16, align 8, !tbaa !14
  %17 = load ptr, ptr %3, align 8, !tbaa !3
  ret ptr %17
}